target datalayout = "e-m:e-p270:32:32-p271:32:32-p272:64:64-i64:64-i128:128-f80:128-n8:16:32:64-S128"
target triple = "x86_64-pc-linux-gnu"

%struct.Vector3 = type { float, float, float }

; Function Attrs: nounwind uwtable
define { <2 x float>, float } @Vector3RotateByAxisAngle(<2 x float> %0, float %1, <2 x float> %2, float %3, float noundef %4) #9 {
  %6 = alloca %struct.Vector3, align 4
  %7 = alloca %struct.Vector3, align 4
  %8 = alloca { <2 x float>, float }, align 4
  %9 = alloca %struct.Vector3, align 4
  %10 = alloca { <2 x float>, float }, align 4
  %11 = alloca float, align 4
  %12 = alloca float, align 4
  %13 = alloca float, align 4
  %14 = alloca float, align 4
  %15 = alloca float, align 4
  %16 = alloca float, align 4
  %17 = alloca float, align 4
  %18 = alloca %struct.Vector3, align 4
  %19 = alloca %struct.Vector3, align 4
  %20 = alloca %struct.Vector3, align 4
  %21 = alloca { <2 x float>, float }, align 8
  %22 = getelementptr inbounds nuw { <2 x float>, float }, ptr %8, i32 0, i32 0
  store <2 x float> %0, ptr %22, align 4
  %23 = getelementptr inbounds nuw { <2 x float>, float }, ptr %8, i32 0, i32 1
  store float %1, ptr %23, align 4
  call void @llvm.memcpy.p0.p0.i64(ptr align 4 %7, ptr align 4 %8, i64 12, i1 false)
  %24 = getelementptr inbounds nuw { <2 x float>, float }, ptr %10, i32 0, i32 0
  store <2 x float> %2, ptr %24, align 4
  %25 = getelementptr inbounds nuw { <2 x float>, float }, ptr %10, i32 0, i32 1
  store float %3, ptr %25, align 4
  call void @llvm.memcpy.p0.p0.i64(ptr align 4 %9, ptr align 4 %10, i64 12, i1 false)
  store float %4, ptr %11, align 4
  call void @llvm.memcpy.p0.p0.i64(ptr align 4 %6, ptr align 4 %7, i64 12, i1 false)
  call void @llvm.lifetime.start.p0(i64 4, ptr %12) #16
  %26 = getelementptr inbounds nuw %struct.Vector3, ptr %9, i32 0, i32 0
  %27 = load float, ptr %26, align 4
  %28 = getelementptr inbounds nuw %struct.Vector3, ptr %9, i32 0, i32 0
  %29 = load float, ptr %28, align 4
  %30 = getelementptr inbounds nuw %struct.Vector3, ptr %9, i32 0, i32 1
  %31 = load float, ptr %30, align 4
  %32 = getelementptr inbounds nuw %struct.Vector3, ptr %9, i32 0, i32 1
  %33 = load float, ptr %32, align 4
  %34 = fmul float %31, %33
  %35 = call float @llvm.fmuladd.f32(float %27, float %29, float %34)
  %36 = getelementptr inbounds nuw %struct.Vector3, ptr %9, i32 0, i32 2
  %37 = load float, ptr %36, align 4
  %38 = getelementptr inbounds nuw %struct.Vector3, ptr %9, i32 0, i32 2
  %39 = load float, ptr %38, align 4
  %40 = call float @llvm.fmuladd.f32(float %37, float %39, float %35)
  %41 = call float @sqrtf(float noundef %40) #16
  store float %41, ptr %12, align 4
  %42 = load float, ptr %12, align 4
  %43 = fcmp oeq float %42, 0.000000e+00
  br i1 %43, label %44, label %45

44:                                               ; preds = %5
  store float 1.000000e+00, ptr %12, align 4
  br label %45

45:                                               ; preds = %44, %5
  call void @llvm.lifetime.start.p0(i64 4, ptr %13) #16
  %46 = load float, ptr %12, align 4
  %47 = fdiv float 1.000000e+00, %46
  store float %47, ptr %13, align 4
  %48 = load float, ptr %13, align 4
  %49 = getelementptr inbounds nuw %struct.Vector3, ptr %9, i32 0, i32 0
  %50 = load float, ptr %49, align 4
  %51 = fmul float %50, %48
  store float %51, ptr %49, align 4
  %52 = load float, ptr %13, align 4
  %53 = getelementptr inbounds nuw %struct.Vector3, ptr %9, i32 0, i32 1
  %54 = load float, ptr %53, align 4
  %55 = fmul float %54, %52
  store float %55, ptr %53, align 4
  %56 = load float, ptr %13, align 4
  %57 = getelementptr inbounds nuw %struct.Vector3, ptr %9, i32 0, i32 2
  %58 = load float, ptr %57, align 4
  %59 = fmul float %58, %56
  store float %59, ptr %57, align 4
  %60 = load float, ptr %11, align 4
  %61 = fdiv float %60, 2.000000e+00
  store float %61, ptr %11, align 4
  call void @llvm.lifetime.start.p0(i64 4, ptr %14) #16
  %62 = load float, ptr %11, align 4
  %63 = call float @sinf(float noundef %62) #16
  store float %63, ptr %14, align 4
  call void @llvm.lifetime.start.p0(i64 4, ptr %15) #16
  %64 = getelementptr inbounds nuw %struct.Vector3, ptr %9, i32 0, i32 0
  %65 = load float, ptr %64, align 4
  %66 = load float, ptr %14, align 4
  %67 = fmul float %65, %66
  store float %67, ptr %15, align 4
  call void @llvm.lifetime.start.p0(i64 4, ptr %16) #16
  %68 = getelementptr inbounds nuw %struct.Vector3, ptr %9, i32 0, i32 1
  %69 = load float, ptr %68, align 4
  %70 = load float, ptr %14, align 4
  %71 = fmul float %69, %70
  store float %71, ptr %16, align 4
  call void @llvm.lifetime.start.p0(i64 4, ptr %17) #16
  %72 = getelementptr inbounds nuw %struct.Vector3, ptr %9, i32 0, i32 2
  %73 = load float, ptr %72, align 4
  %74 = load float, ptr %14, align 4
  %75 = fmul float %73, %74
  store float %75, ptr %17, align 4
  %76 = load float, ptr %11, align 4
  %77 = call float @cosf(float noundef %76) #16
  store float %77, ptr %14, align 4
  call void @llvm.lifetime.start.p0(i64 12, ptr %18) #16
  %78 = getelementptr inbounds nuw %struct.Vector3, ptr %18, i32 0, i32 0
  %79 = load float, ptr %15, align 4
  store float %79, ptr %78, align 4
  %80 = getelementptr inbounds nuw %struct.Vector3, ptr %18, i32 0, i32 1
  %81 = load float, ptr %16, align 4
  store float %81, ptr %80, align 4
  %82 = getelementptr inbounds nuw %struct.Vector3, ptr %18, i32 0, i32 2
  %83 = load float, ptr %17, align 4
  store float %83, ptr %82, align 4
  call void @llvm.lifetime.start.p0(i64 12, ptr %19) #16
  %84 = getelementptr inbounds nuw %struct.Vector3, ptr %19, i32 0, i32 0
  %85 = getelementptr inbounds nuw %struct.Vector3, ptr %18, i32 0, i32 1
  %86 = load float, ptr %85, align 4
  %87 = getelementptr inbounds nuw %struct.Vector3, ptr %7, i32 0, i32 2
  %88 = load float, ptr %87, align 4
  %89 = getelementptr inbounds nuw %struct.Vector3, ptr %18, i32 0, i32 2
  %90 = load float, ptr %89, align 4
  %91 = getelementptr inbounds nuw %struct.Vector3, ptr %7, i32 0, i32 1
  %92 = load float, ptr %91, align 4
  %93 = fmul float %90, %92
  %94 = fneg float %93
  %95 = call float @llvm.fmuladd.f32(float %86, float %88, float %94)
  store float %95, ptr %84, align 4
  %96 = getelementptr inbounds nuw %struct.Vector3, ptr %19, i32 0, i32 1
  %97 = getelementptr inbounds nuw %struct.Vector3, ptr %18, i32 0, i32 2
  %98 = load float, ptr %97, align 4
  %99 = getelementptr inbounds nuw %struct.Vector3, ptr %7, i32 0, i32 0
  %100 = load float, ptr %99, align 4
  %101 = getelementptr inbounds nuw %struct.Vector3, ptr %18, i32 0, i32 0
  %102 = load float, ptr %101, align 4
  %103 = getelementptr inbounds nuw %struct.Vector3, ptr %7, i32 0, i32 2
  %104 = load float, ptr %103, align 4
  %105 = fmul float %102, %104
  %106 = fneg float %105
  %107 = call float @llvm.fmuladd.f32(float %98, float %100, float %106)
  store float %107, ptr %96, align 4
  %108 = getelementptr inbounds nuw %struct.Vector3, ptr %19, i32 0, i32 2
  %109 = getelementptr inbounds nuw %struct.Vector3, ptr %18, i32 0, i32 0
  %110 = load float, ptr %109, align 4
  %111 = getelementptr inbounds nuw %struct.Vector3, ptr %7, i32 0, i32 1
  %112 = load float, ptr %111, align 4
  %113 = getelementptr inbounds nuw %struct.Vector3, ptr %18, i32 0, i32 1
  %114 = load float, ptr %113, align 4
  %115 = getelementptr inbounds nuw %struct.Vector3, ptr %7, i32 0, i32 0
  %116 = load float, ptr %115, align 4
  %117 = fmul float %114, %116
  %118 = fneg float %117
  %119 = call float @llvm.fmuladd.f32(float %110, float %112, float %118)
  store float %119, ptr %108, align 4
  call void @llvm.lifetime.start.p0(i64 12, ptr %20) #16
  %120 = getelementptr inbounds nuw %struct.Vector3, ptr %20, i32 0, i32 0
  %121 = getelementptr inbounds nuw %struct.Vector3, ptr %18, i32 0, i32 1
  %122 = load float, ptr %121, align 4
  %123 = getelementptr inbounds nuw %struct.Vector3, ptr %19, i32 0, i32 2
  %124 = load float, ptr %123, align 4
  %125 = getelementptr inbounds nuw %struct.Vector3, ptr %18, i32 0, i32 2
  %126 = load float, ptr %125, align 4
  %127 = getelementptr inbounds nuw %struct.Vector3, ptr %19, i32 0, i32 1
  %128 = load float, ptr %127, align 4
  %129 = fmul float %126, %128
  %130 = fneg float %129
  %131 = call float @llvm.fmuladd.f32(float %122, float %124, float %130)
  store float %131, ptr %120, align 4
  %132 = getelementptr inbounds nuw %struct.Vector3, ptr %20, i32 0, i32 1
  %133 = getelementptr inbounds nuw %struct.Vector3, ptr %18, i32 0, i32 2
  %134 = load float, ptr %133, align 4
  %135 = getelementptr inbounds nuw %struct.Vector3, ptr %19, i32 0, i32 0
  %136 = load float, ptr %135, align 4
  %137 = getelementptr inbounds nuw %struct.Vector3, ptr %18, i32 0, i32 0
  %138 = load float, ptr %137, align 4
  %139 = getelementptr inbounds nuw %struct.Vector3, ptr %19, i32 0, i32 2
  %140 = load float, ptr %139, align 4
  %141 = fmul float %138, %140
  %142 = fneg float %141
  %143 = call float @llvm.fmuladd.f32(float %134, float %136, float %142)
  store float %143, ptr %132, align 4
  %144 = getelementptr inbounds nuw %struct.Vector3, ptr %20, i32 0, i32 2
  %145 = getelementptr inbounds nuw %struct.Vector3, ptr %18, i32 0, i32 0
  %146 = load float, ptr %145, align 4
  %147 = getelementptr inbounds nuw %struct.Vector3, ptr %19, i32 0, i32 1
  %148 = load float, ptr %147, align 4
  %149 = getelementptr inbounds nuw %struct.Vector3, ptr %18, i32 0, i32 1
  %150 = load float, ptr %149, align 4
  %151 = getelementptr inbounds nuw %struct.Vector3, ptr %19, i32 0, i32 0
  %152 = load float, ptr %151, align 4
  %153 = fmul float %150, %152
  %154 = fneg float %153
  %155 = call float @llvm.fmuladd.f32(float %146, float %148, float %154)
  store float %155, ptr %144, align 4
  %156 = load float, ptr %14, align 4
  %157 = fmul float %156, 2.000000e+00
  store float %157, ptr %14, align 4
  %158 = load float, ptr %14, align 4
  %159 = getelementptr inbounds nuw %struct.Vector3, ptr %19, i32 0, i32 0
  %160 = load float, ptr %159, align 4
  %161 = fmul float %160, %158
  store float %161, ptr %159, align 4
  %162 = load float, ptr %14, align 4
  %163 = getelementptr inbounds nuw %struct.Vector3, ptr %19, i32 0, i32 1
  %164 = load float, ptr %163, align 4
  %165 = fmul float %164, %162
  store float %165, ptr %163, align 4
  %166 = load float, ptr %14, align 4
  %167 = getelementptr inbounds nuw %struct.Vector3, ptr %19, i32 0, i32 2
  %168 = load float, ptr %167, align 4
  %169 = fmul float %168, %166
  store float %169, ptr %167, align 4
  %170 = getelementptr inbounds nuw %struct.Vector3, ptr %20, i32 0, i32 0
  %171 = load float, ptr %170, align 4
  %172 = fmul float %171, 2.000000e+00
  store float %172, ptr %170, align 4
  %173 = getelementptr inbounds nuw %struct.Vector3, ptr %20, i32 0, i32 1
  %174 = load float, ptr %173, align 4
  %175 = fmul float %174, 2.000000e+00
  store float %175, ptr %173, align 4
  %176 = getelementptr inbounds nuw %struct.Vector3, ptr %20, i32 0, i32 2
  %177 = load float, ptr %176, align 4
  %178 = fmul float %177, 2.000000e+00
  store float %178, ptr %176, align 4
  %179 = getelementptr inbounds nuw %struct.Vector3, ptr %19, i32 0, i32 0
  %180 = load float, ptr %179, align 4
  %181 = getelementptr inbounds nuw %struct.Vector3, ptr %6, i32 0, i32 0
  %182 = load float, ptr %181, align 4
  %183 = fadd float %182, %180
  store float %183, ptr %181, align 4
  %184 = getelementptr inbounds nuw %struct.Vector3, ptr %19, i32 0, i32 1
  %185 = load float, ptr %184, align 4
  %186 = getelementptr inbounds nuw %struct.Vector3, ptr %6, i32 0, i32 1
  %187 = load float, ptr %186, align 4
  %188 = fadd float %187, %185
  store float %188, ptr %186, align 4
  %189 = getelementptr inbounds nuw %struct.Vector3, ptr %19, i32 0, i32 2
  %190 = load float, ptr %189, align 4
  %191 = getelementptr inbounds nuw %struct.Vector3, ptr %6, i32 0, i32 2
  %192 = load float, ptr %191, align 4
  %193 = fadd float %192, %190
  store float %193, ptr %191, align 4
  %194 = getelementptr inbounds nuw %struct.Vector3, ptr %20, i32 0, i32 0
  %195 = load float, ptr %194, align 4
  %196 = getelementptr inbounds nuw %struct.Vector3, ptr %6, i32 0, i32 0
  %197 = load float, ptr %196, align 4
  %198 = fadd float %197, %195
  store float %198, ptr %196, align 4
  %199 = getelementptr inbounds nuw %struct.Vector3, ptr %20, i32 0, i32 1
  %200 = load float, ptr %199, align 4
  %201 = getelementptr inbounds nuw %struct.Vector3, ptr %6, i32 0, i32 1
  %202 = load float, ptr %201, align 4
  %203 = fadd float %202, %200
  store float %203, ptr %201, align 4
  %204 = getelementptr inbounds nuw %struct.Vector3, ptr %20, i32 0, i32 2
  %205 = load float, ptr %204, align 4
  %206 = getelementptr inbounds nuw %struct.Vector3, ptr %6, i32 0, i32 2
  %207 = load float, ptr %206, align 4
  %208 = fadd float %207, %205
  store float %208, ptr %206, align 4
  call void @llvm.lifetime.end.p0(i64 12, ptr %20) #16
  call void @llvm.lifetime.end.p0(i64 12, ptr %19) #16
  call void @llvm.lifetime.end.p0(i64 12, ptr %18) #16
  call void @llvm.lifetime.end.p0(i64 4, ptr %17) #16
  call void @llvm.lifetime.end.p0(i64 4, ptr %16) #16
  call void @llvm.lifetime.end.p0(i64 4, ptr %15) #16
  call void @llvm.lifetime.end.p0(i64 4, ptr %14) #16
  call void @llvm.lifetime.end.p0(i64 4, ptr %13) #16
  call void @llvm.lifetime.end.p0(i64 4, ptr %12) #16
  call void @llvm.memcpy.p0.p0.i64(ptr align 8 %21, ptr align 4 %6, i64 12, i1 false)
  %209 = load { <2 x float>, float }, ptr %21, align 8
  ret { <2 x float>, float } %209
}