; Function Attrs: mustprogress nofree nounwind willreturn memory(write) uwtable
define { <2 x float>, float } @Vector3RotateByAxisAngle(<2 x float> %0, float %1, <2 x float> %2, float %3, float noundef %4) local_unnamed_addr #18 {
  %.sroa.044.0.vec.extract = extractelement <2 x float> %2, i64 0
  %.sroa.044.4.vec.extract = extractelement <2 x float> %2, i64 1
  %6 = fmul float %.sroa.044.4.vec.extract, %.sroa.044.4.vec.extract
  %7 = tail call float @llvm.fmuladd.f32(float %.sroa.044.0.vec.extract, float %.sroa.044.0.vec.extract, float %6)
  %8 = tail call float @llvm.fmuladd.f32(float %3, float %3, float %7)
  %sqrt = tail call float @llvm.sqrt.f32(float %8)
  %9 = fcmp oeq float %8, 0.000000e+00
  %10 = fdiv float 1.000000e+00, %sqrt
  %11 = select i1 %9, float 1.000000e+00, float %10
  %12 = fmul float %.sroa.044.0.vec.extract, %11
  %13 = fmul float %.sroa.044.4.vec.extract, %11
  %14 = fmul float %3, %11
  %15 = fmul float %4, 5.000000e-01
  %16 = tail call float @sinf(float noundef %15) #56
  %17 = fmul float %12, %16
  %18 = fmul float %13, %16
  %19 = fmul float %14, %16
  %20 = tail call float @cosf(float noundef %15) #56
  %.sroa.064.4.vec.extract = extractelement <2 x float> %0, i64 1
  %21 = fneg float %.sroa.064.4.vec.extract
  %22 = fmul float %19, %21
  %23 = tail call float @llvm.fmuladd.f32(float %18, float %1, float %22)
  %.sroa.064.0.vec.extract = extractelement <2 x float> %0, i64 0
  %24 = fneg float %1
  %25 = fmul float %17, %24
  %26 = tail call float @llvm.fmuladd.f32(float %19, float %.sroa.064.0.vec.extract, float %25)
  %27 = fneg float %.sroa.064.0.vec.extract
  %28 = fmul float %18, %27
  %29 = tail call float @llvm.fmuladd.f32(float %17, float %.sroa.064.4.vec.extract, float %28)
  %30 = fneg float %26
  %31 = fmul float %19, %30
  %32 = tail call float @llvm.fmuladd.f32(float %18, float %29, float %31)
  %33 = fneg float %29
  %34 = fmul float %17, %33
  %35 = tail call float @llvm.fmuladd.f32(float %19, float %23, float %34)
  %36 = fneg float %23
  %37 = fmul float %18, %36
  %38 = tail call float @llvm.fmuladd.f32(float %17, float %26, float %37)
  %39 = fmul float %20, 2.000000e+00
  %40 = fmul float %39, %23
  %41 = fmul float %39, %26
  %42 = fmul float %39, %29
  %43 = fmul float %32, 2.000000e+00
  %44 = fmul float %35, 2.000000e+00
  %45 = fmul float %38, 2.000000e+00
  %46 = fadd float %.sroa.064.0.vec.extract, %40
  %47 = fadd float %.sroa.064.4.vec.extract, %41
  %48 = fadd float %1, %42
  %49 = fadd float %46, %43
  %50 = insertelement <2 x float> poison, float %49, i64 0
  %51 = fadd float %47, %44
  %.sroa.071.4.vec.insert82 = insertelement <2 x float> %50, float %51, i64 1
  %52 = fadd float %48, %45
  %.fca.0.insert = insertvalue { <2 x float>, float } poison, <2 x float> %.sroa.071.4.vec.insert82, 0
  %.fca.1.insert = insertvalue { <2 x float>, float } %.fca.0.insert, float %52, 1
  ret { <2 x float>, float } %.fca.1.insert
}